target datalayout = "e-m:e-p270:32:32-p271:32:32-p272:64:64-i64:64-i128:128-f80:128-n8:16:32:64-S128"
target triple = "x86_64-pc-linux-gnu"

%struct.procfs_entry_s = type { ptr, ptr, i8 }
%struct.procfs_operations = type { ptr, ptr, ptr, ptr, ptr, ptr, ptr, ptr, ptr, ptr, ptr }
%struct.file = type { i32, i32, ptr, ptr }
%struct.procfs_file_s = type { ptr }
%struct.stat = type { i32, i16, i32, i16, i32, i32, i32, i32, %struct.timespec, %struct.timespec, %struct.timespec, i16, i32 }
%struct.timespec = type { i64, i64 }

; Function Attrs: nounwind uwtable
define internal i32 @procfs_fstat(ptr noundef %0, ptr noundef %1) #0 {
  %3 = alloca ptr, align 8
  %4 = alloca ptr, align 8
  %5 = alloca ptr, align 8
  store ptr %0, ptr %3, align 8
  store ptr %1, ptr %4, align 8
  br label %6

6:                                                ; preds = %2
  br label %7

7:                                                ; preds = %6
  %8 = load ptr, ptr %3, align 8
  %9 = getelementptr inbounds %struct.file, ptr %8, i32 0, i32 3
  %10 = load ptr, ptr %9, align 8
  store ptr %10, ptr %5, align 8
  %11 = load ptr, ptr %4, align 8
  call void @llvm.memset.p0.i64(ptr align 8 %11, i8 0, i64 88, i1 false)
  %12 = load ptr, ptr %4, align 8
  %13 = getelementptr inbounds %struct.stat, ptr %12, i32 0, i32 2
  store i32 33060, ptr %13, align 8
  %14 = load ptr, ptr %5, align 8
  %15 = getelementptr inbounds %struct.procfs_file_s, ptr %14, i32 0, i32 0
  %16 = load ptr, ptr %15, align 8
  %17 = getelementptr inbounds %struct.procfs_entry_s, ptr %16, i32 0, i32 1
  %18 = load ptr, ptr %17, align 8
  %19 = getelementptr inbounds %struct.procfs_operations, ptr %18, i32 0, i32 3
  %20 = load ptr, ptr %19, align 8
  %21 = icmp ne ptr %20, null
  br i1 %21, label %22, label %27

22:                                               ; preds = %7
  %23 = load ptr, ptr %4, align 8
  %24 = getelementptr inbounds %struct.stat, ptr %23, i32 0, i32 2
  %25 = load i32, ptr %24, align 8
  %26 = or i32 %25, 146
  store i32 %26, ptr %24, align 8
  br label %27

27:                                               ; preds = %22, %7
  ret i32 0
}