; Function Attrs: mustprogress nofree norecurse nosync nounwind willreturn memory(read, argmem: readwrite, inaccessiblemem: none) uwtable
define internal noundef i32 @procfs_fstat(ptr noundef readonly captures(none) %0, ptr noundef writeonly captures(none) initializes((0, 88)) %1) #2 {
  %3 = getelementptr inbounds nuw i8, ptr %0, i64 16
  %4 = load ptr, ptr %3, align 8
  tail call void @llvm.memset.p0.i64(ptr noundef nonnull align 8 dereferenceable(88) %1, i8 0, i64 88, i1 false)
  %5 = getelementptr inbounds nuw i8, ptr %1, i64 8
  store i32 33060, ptr %5, align 8
  %6 = load ptr, ptr %4, align 8
  %7 = getelementptr inbounds nuw i8, ptr %6, i64 8
  %8 = load ptr, ptr %7, align 8
  %9 = getelementptr inbounds nuw i8, ptr %8, i64 24
  %10 = load ptr, ptr %9, align 8
  %.not = icmp eq ptr %10, null
  %spec.store.select = select i1 %.not, i32 33060, i32 33206
  store i32 %spec.store.select, ptr %5, align 8
  ret i32 0
}